target datalayout = "e-m:e-p270:32:32-p271:32:32-p272:64:64-i64:64-i128:128-f80:128-n8:16:32:64-S128"
target triple = "x86_64-pc-linux-gnu"

; Function Attrs: nounwind uwtable
define dso_local i32 @memhash(ptr noundef %0, i64 noundef %1) #0 {
  %3 = alloca ptr, align 8
  %4 = alloca i64, align 8
  %5 = alloca i32, align 4
  %6 = alloca ptr, align 8
  %7 = alloca i32, align 4
  store ptr %0, ptr %3, align 8, !tbaa !15
  store i64 %1, ptr %4, align 8, !tbaa !16
  call void @llvm.lifetime.start.p0(i64 4, ptr %5) #9
  store i32 -2128831035, ptr %5, align 4, !tbaa !9
  call void @llvm.lifetime.start.p0(i64 8, ptr %6) #9
  %8 = load ptr, ptr %3, align 8, !tbaa !15
  store ptr %8, ptr %6, align 8, !tbaa !4
  br label %9

9:                                                ; preds = %13, %2
  %10 = load i64, ptr %4, align 8, !tbaa !16
  %11 = add i64 %10, -1
  store i64 %11, ptr %4, align 8, !tbaa !16
  %12 = icmp ne i64 %10, 0
  br i1 %12, label %13, label %22

13:                                               ; preds = %9
  call void @llvm.lifetime.start.p0(i64 4, ptr %7) #9
  %14 = load ptr, ptr %6, align 8, !tbaa !4
  %15 = getelementptr inbounds nuw i8, ptr %14, i32 1
  store ptr %15, ptr %6, align 8, !tbaa !4
  %16 = load i8, ptr %14, align 1, !tbaa !11
  %17 = zext i8 %16 to i32
  store i32 %17, ptr %7, align 4, !tbaa !9
  %18 = load i32, ptr %5, align 4, !tbaa !9
  %19 = mul i32 %18, 16777619
  %20 = load i32, ptr %7, align 4, !tbaa !9
  %21 = xor i32 %19, %20
  store i32 %21, ptr %5, align 4, !tbaa !9
  call void @llvm.lifetime.end.p0(i64 4, ptr %7) #9
  br label %9, !llvm.loop !18

22:                                               ; preds = %9
  %23 = load i32, ptr %5, align 4, !tbaa !9
  call void @llvm.lifetime.end.p0(i64 8, ptr %6) #9
  call void @llvm.lifetime.end.p0(i64 4, ptr %5) #9
  ret i32 %23
}