; Function Attrs: nofree norecurse nosync nounwind memory(argmem: read) uwtable
define dso_local i32 @memhash(ptr noundef readonly captures(none) %0, i64 noundef %1) local_unnamed_addr #0 {
  %.not7 = icmp eq i64 %1, 0
  br i1 %.not7, label %._crit_edge, label %.lr.ph

.lr.ph:                                           ; preds = %2, %.lr.ph
  %.010 = phi i64 [ %3, %.lr.ph ], [ %1, %2 ]
  %.059 = phi ptr [ %4, %.lr.ph ], [ %0, %2 ]
  %.068 = phi i32 [ %8, %.lr.ph ], [ -2128831035, %2 ]
  %3 = add i64 %.010, -1
  %4 = getelementptr inbounds nuw i8, ptr %.059, i64 1
  %5 = load i8, ptr %.059, align 1, !tbaa !4
  %6 = zext i8 %5 to i32
  %7 = mul i32 %.068, 16777619
  %8 = xor i32 %7, %6
  %.not = icmp eq i64 %3, 0
  br i1 %.not, label %._crit_edge, label %.lr.ph, !llvm.loop !10

._crit_edge:                                      ; preds = %.lr.ph, %2
  %.06.lcssa = phi i32 [ -2128831035, %2 ], [ %8, %.lr.ph ]
  ret i32 %.06.lcssa
}